; Function Attrs: mustprogress nofree norecurse nosync nounwind willreturn memory(readwrite, inaccessiblemem: none) uwtable
define dso_local void @_ZN3ozz3log14FloatPrecisionD2Ev(ptr noundef nonnull readonly align 8 captures(none) dereferenceable(24) %0) unnamed_addr #9 align 2 personality ptr @__gxx_personality_v0 {
  %2 = getelementptr inbounds nuw i8, ptr %0, i64 16
  %3 = load ptr, ptr %2, align 8, !tbaa !35
  %4 = load ptr, ptr %3, align 8, !tbaa !8
  %5 = getelementptr i8, ptr %4, i64 -24
  %6 = load i64, ptr %5, align 8
  %7 = getelementptr inbounds i8, ptr %3, i64 %6
  %8 = load i64, ptr %0, align 8, !tbaa !30
  %9 = getelementptr inbounds nuw i8, ptr %7, i64 8
  store i64 %8, ptr %9, align 8, !tbaa !19
  %10 = load i64, ptr %5, align 8
  %11 = getelementptr inbounds i8, ptr %3, i64 %10
  %12 = getelementptr inbounds nuw i8, ptr %0, i64 8
  %13 = load i32, ptr %12, align 8, !tbaa !34
  %14 = getelementptr inbounds nuw i8, ptr %11, i64 24
  %15 = load i32, ptr %14, align 8, !tbaa !32
  %16 = and i32 %15, -261
  %17 = and i32 %13, 260
  %18 = or disjoint i32 %16, %17
  store i32 %18, ptr %14, align 4, !tbaa !33
  ret void
}